target datalayout = "e-m:e-p270:32:32-p271:32:32-p272:64:64-i64:64-i128:128-f80:128-n8:16:32:64-S128"
target triple = "x86_64-unknown-linux-gnu"

%"class.std::set.0" = type { %"class.std::_Rb_tree.1" }
%"class.std::_Rb_tree.1" = type { %"struct.std::_Rb_tree<QuantLib::Observer *, QuantLib::Observer *, std::_Identity<QuantLib::Observer *>, std::less<QuantLib::Observer *>>::_Rb_tree_impl" }
%"struct.std::_Rb_tree<QuantLib::Observer *, QuantLib::Observer *, std::_Identity<QuantLib::Observer *>, std::less<QuantLib::Observer *>>::_Rb_tree_impl" = type { [8 x i8], %"struct.std::_Rb_tree_header" }
%"struct.std::_Rb_tree_header" = type { %"struct.std::_Rb_tree_node_base", i64 }
%"struct.std::_Rb_tree_node_base" = type { i32, ptr, ptr, ptr }
%"class.std::set" = type { %"class.std::_Rb_tree" }
%"class.std::_Rb_tree" = type { %"struct.std::_Rb_tree<boost::shared_ptr<QuantLib::Observable>, boost::shared_ptr<QuantLib::Observable>, std::_Identity<boost::shared_ptr<QuantLib::Observable>>, std::less<boost::shared_ptr<QuantLib::Observable>>>::_Rb_tree_impl" }
%"struct.std::_Rb_tree<boost::shared_ptr<QuantLib::Observable>, boost::shared_ptr<QuantLib::Observable>, std::_Identity<boost::shared_ptr<QuantLib::Observable>>, std::less<boost::shared_ptr<QuantLib::Observable>>>::_Rb_tree_impl" = type { [8 x i8], %"struct.std::_Rb_tree_header" }
%"class.boost::detail::shared_count" = type { ptr }
%"class.QuantLib::Observable" = type { ptr, %"class.std::set.0" }
%"class.QuantLib::DayCounter" = type { %"class.boost::shared_ptr.6" }
%"class.boost::shared_ptr.6" = type { ptr, %"class.boost::detail::shared_count" }
%"class.QuantLib::Extrapolator.base" = type <{ ptr, i8 }>
%"class.QuantLib::Calendar" = type { %"class.boost::shared_ptr.7" }
%"class.boost::shared_ptr.7" = type { ptr, %"class.boost::detail::shared_count" }
%"class.QuantLib::Date" = type { i64 }
%"class.QuantLib::Observer" = type { ptr, %"class.std::set" }
%"class.QuantLib::TermStructure.base" = type { %"class.QuantLib::Extrapolator.base", i8, i8, %"class.QuantLib::Calendar", %"class.QuantLib::Date", i32, %"class.QuantLib::DayCounter" }
%"class.QuantLib::SabrVolSurface" = type { %"class.QuantLib::InterestRateVolSurface.base", %"class.QuantLib::Handle", %"class.std::vector", %"class.std::vector.32", %"class.std::vector.37", %"class.std::vector.32", %"class.std::vector.42", i8, i8, i8, i8, i8, %"class.std::vector.47", %"class.QuantLib::Observer", %"class.QuantLib::Observable" }
%"class.QuantLib::InterestRateVolSurface.base" = type { %"class.QuantLib::BlackVolSurface.base", %"class.boost::shared_ptr.27" }
%"class.QuantLib::BlackVolSurface.base" = type { %"class.QuantLib::BlackAtmVolCurve.base" }
%"class.QuantLib::BlackAtmVolCurve.base" = type { %"class.QuantLib::VolatilityTermStructure.base" }
%"class.QuantLib::VolatilityTermStructure.base" = type <{ %"class.QuantLib::TermStructure.base", i32 }>
%"class.boost::shared_ptr.27" = type { ptr, %"class.boost::detail::shared_count" }
%"class.QuantLib::Handle" = type { %"class.boost::shared_ptr.28" }
%"class.boost::shared_ptr.28" = type { ptr, %"class.boost::detail::shared_count" }
%"class.std::vector" = type { %"struct.std::_Vector_base" }
%"struct.std::_Vector_base" = type { %"struct.std::_Vector_base<QuantLib::Period, std::allocator<QuantLib::Period>>::_Vector_impl" }
%"struct.std::_Vector_base<QuantLib::Period, std::allocator<QuantLib::Period>>::_Vector_impl" = type { %"struct.std::_Vector_base<QuantLib::Period, std::allocator<QuantLib::Period>>::_Vector_impl_data" }
%"struct.std::_Vector_base<QuantLib::Period, std::allocator<QuantLib::Period>>::_Vector_impl_data" = type { ptr, ptr, ptr }
%"class.std::vector.37" = type { %"struct.std::_Vector_base.38" }
%"struct.std::_Vector_base.38" = type { %"struct.std::_Vector_base<QuantLib::Date, std::allocator<QuantLib::Date>>::_Vector_impl" }
%"struct.std::_Vector_base<QuantLib::Date, std::allocator<QuantLib::Date>>::_Vector_impl" = type { %"struct.std::_Vector_base<QuantLib::Date, std::allocator<QuantLib::Date>>::_Vector_impl_data" }
%"struct.std::_Vector_base<QuantLib::Date, std::allocator<QuantLib::Date>>::_Vector_impl_data" = type { ptr, ptr, ptr }
%"class.std::vector.32" = type { %"struct.std::_Vector_base.33" }
%"struct.std::_Vector_base.33" = type { %"struct.std::_Vector_base<double, std::allocator<double>>::_Vector_impl" }
%"struct.std::_Vector_base<double, std::allocator<double>>::_Vector_impl" = type { %"struct.std::_Vector_base<double, std::allocator<double>>::_Vector_impl_data" }
%"struct.std::_Vector_base<double, std::allocator<double>>::_Vector_impl_data" = type { ptr, ptr, ptr }
%"class.std::vector.42" = type { %"struct.std::_Vector_base.43" }
%"struct.std::_Vector_base.43" = type { %"struct.std::_Vector_base<std::vector<QuantLib::Handle<QuantLib::Quote>>, std::allocator<std::vector<QuantLib::Handle<QuantLib::Quote>>>>::_Vector_impl" }
%"struct.std::_Vector_base<std::vector<QuantLib::Handle<QuantLib::Quote>>, std::allocator<std::vector<QuantLib::Handle<QuantLib::Quote>>>>::_Vector_impl" = type { %"struct.std::_Vector_base<std::vector<QuantLib::Handle<QuantLib::Quote>>, std::allocator<std::vector<QuantLib::Handle<QuantLib::Quote>>>>::_Vector_impl_data" }
%"struct.std::_Vector_base<std::vector<QuantLib::Handle<QuantLib::Quote>>, std::allocator<std::vector<QuantLib::Handle<QuantLib::Quote>>>>::_Vector_impl_data" = type { ptr, ptr, ptr }
%"class.std::vector.47" = type { %"struct.std::_Vector_base.48" }
%"struct.std::_Vector_base.48" = type { %"struct.std::_Vector_base<std::array<double, 4>, std::allocator<std::array<double, 4>>>::_Vector_impl" }
%"struct.std::_Vector_base<std::array<double, 4>, std::allocator<std::array<double, 4>>>::_Vector_impl" = type { %"struct.std::_Vector_base<std::array<double, 4>, std::allocator<std::array<double, 4>>>::_Vector_impl_data" }
%"struct.std::_Vector_base<std::array<double, 4>, std::allocator<std::array<double, 4>>>::_Vector_impl_data" = type { ptr, ptr, ptr }
%"class.QuantLib::Period" = type { i32, i32 }

; Function Attrs: mustprogress nounwind uwtable
define linkonce_odr noundef nonnull align 8 dereferenceable(8) ptr @_ZNSt6vectorIdSaIdEEixEm(ptr noundef nonnull align 8 dereferenceable(24) %this, i64 noundef %__n) #1 comdat align 2 {
entry:
  %this.addr = alloca ptr, align 8
  %__n.addr = alloca i64, align 8
  store ptr %this, ptr %this.addr, align 8, !tbaa !3
  store i64 %__n, ptr %__n.addr, align 8, !tbaa !61
  %this1 = load ptr, ptr %this.addr, align 8
  %_M_impl = getelementptr inbounds nuw %"struct.std::_Vector_base.33", ptr %this1, i32 0, i32 0
  %_M_start = getelementptr inbounds nuw %"struct.std::_Vector_base<double, std::allocator<double>>::_Vector_impl_data", ptr %_M_impl, i32 0, i32 0
  %0 = load ptr, ptr %_M_start, align 8, !tbaa !74
  %1 = load i64, ptr %__n.addr, align 8, !tbaa !61
  %add.ptr = getelementptr inbounds nuw double, ptr %0, i64 %1
  ret ptr %add.ptr
}

; Function Attrs: mustprogress nounwind uwtable
define linkonce_odr noundef nonnull align 8 dereferenceable(8) ptr @_ZNSt6vectorIN8QuantLib4DateESaIS1_EEixEm(ptr noundef nonnull align 8 dereferenceable(24) %this, i64 noundef %__n) #1 comdat align 2 {
entry:
  %this.addr = alloca ptr, align 8
  %__n.addr = alloca i64, align 8
  store ptr %this, ptr %this.addr, align 8, !tbaa !3
  store i64 %__n, ptr %__n.addr, align 8, !tbaa !61
  %this1 = load ptr, ptr %this.addr, align 8
  %_M_impl = getelementptr inbounds nuw %"struct.std::_Vector_base.38", ptr %this1, i32 0, i32 0
  %_M_start = getelementptr inbounds nuw %"struct.std::_Vector_base<QuantLib::Date, std::allocator<QuantLib::Date>>::_Vector_impl_data", ptr %_M_impl, i32 0, i32 0
  %0 = load ptr, ptr %_M_start, align 8, !tbaa !73
  %1 = load i64, ptr %__n.addr, align 8, !tbaa !61
  %add.ptr = getelementptr inbounds nuw %"class.QuantLib::Date", ptr %0, i64 %1
  ret ptr %add.ptr
}

; Function Attrs: mustprogress nounwind uwtable
define linkonce_odr noundef nonnull align 4 dereferenceable(8) ptr @_ZNSt6vectorIN8QuantLib6PeriodESaIS1_EEixEm(ptr noundef nonnull align 8 dereferenceable(24) %this, i64 noundef %__n) #1 comdat align 2 {
entry:
  %this.addr = alloca ptr, align 8
  %__n.addr = alloca i64, align 8
  store ptr %this, ptr %this.addr, align 8, !tbaa !3
  store i64 %__n, ptr %__n.addr, align 8, !tbaa !61
  %this1 = load ptr, ptr %this.addr, align 8
  %_M_impl = getelementptr inbounds nuw %"struct.std::_Vector_base", ptr %this1, i32 0, i32 0
  %_M_start = getelementptr inbounds nuw %"struct.std::_Vector_base<QuantLib::Period, std::allocator<QuantLib::Period>>::_Vector_impl_data", ptr %_M_impl, i32 0, i32 0
  %0 = load ptr, ptr %_M_start, align 8, !tbaa !68
  %1 = load i64, ptr %__n.addr, align 8, !tbaa !61
  %add.ptr = getelementptr inbounds nuw %"class.QuantLib::Period", ptr %0, i64 %1
  ret ptr %add.ptr
}

; Function Attrs: mustprogress nounwind uwtable
define linkonce_odr noundef i64 @_ZNKSt6vectorIN8QuantLib6PeriodESaIS1_EE4sizeEv(ptr noundef nonnull align 8 dereferenceable(24) %this) #1 comdat align 2 {
entry:
  %this.addr = alloca ptr, align 8
  store ptr %this, ptr %this.addr, align 8, !tbaa !3
  %this1 = load ptr, ptr %this.addr, align 8
  %_M_impl = getelementptr inbounds nuw %"struct.std::_Vector_base", ptr %this1, i32 0, i32 0
  %_M_finish = getelementptr inbounds nuw %"struct.std::_Vector_base<QuantLib::Period, std::allocator<QuantLib::Period>>::_Vector_impl_data", ptr %_M_impl, i32 0, i32 1
  %0 = load ptr, ptr %_M_finish, align 8, !tbaa !69
  %_M_impl2 = getelementptr inbounds nuw %"struct.std::_Vector_base", ptr %this1, i32 0, i32 0
  %_M_start = getelementptr inbounds nuw %"struct.std::_Vector_base<QuantLib::Period, std::allocator<QuantLib::Period>>::_Vector_impl_data", ptr %_M_impl2, i32 0, i32 0
  %1 = load ptr, ptr %_M_start, align 8, !tbaa !68
  %sub.ptr.lhs.cast = ptrtoint ptr %0 to i64
  %sub.ptr.rhs.cast = ptrtoint ptr %1 to i64
  %sub.ptr.sub = sub i64 %sub.ptr.lhs.cast, %sub.ptr.rhs.cast
  %sub.ptr.div = sdiv exact i64 %sub.ptr.sub, 8
  ret i64 %sub.ptr.div
}

; Function Attrs: mustprogress uwtable
define void @_ZN8QuantLib14SabrVolSurface6updateEv(ptr noundef nonnull align 8 dereferenceable(256) %this) unnamed_addr #2 align 2 {
entry:
  %this.addr = alloca ptr, align 8
  %i = alloca i64, align 8
  %ref.tmp = alloca %"class.QuantLib::Date", align 8
  store ptr %this, ptr %this.addr, align 8, !tbaa !3
  %this1 = load ptr, ptr %this.addr, align 8
  call void @_ZN8QuantLib13TermStructure6updateEv(ptr noundef nonnull align 8 dereferenceable(64) %this1)
  call void @llvm.lifetime.start.p0(i64 8, ptr %i) #16
  store i64 0, ptr %i, align 8, !tbaa !61
  br label %for.cond

for.cond:                                         ; preds = %for.inc, %entry
  %0 = load i64, ptr %i, align 8, !tbaa !61
  %optionTenors_ = getelementptr inbounds nuw %"class.QuantLib::SabrVolSurface", ptr %this1, i32 0, i32 2
  %call = call noundef i64 @_ZNKSt6vectorIN8QuantLib6PeriodESaIS1_EE4sizeEv(ptr noundef nonnull align 8 dereferenceable(24) %optionTenors_) #16
  %cmp = icmp ult i64 %0, %call
  br i1 %cmp, label %for.body, label %for.cond.cleanup

for.cond.cleanup:                                 ; preds = %for.cond
  call void @llvm.lifetime.end.p0(i64 8, ptr %i) #16
  br label %for.end

for.body:                                         ; preds = %for.cond
  call void @llvm.lifetime.start.p0(i64 8, ptr %ref.tmp) #16
  %optionTenors_2 = getelementptr inbounds nuw %"class.QuantLib::SabrVolSurface", ptr %this1, i32 0, i32 2
  %1 = load i64, ptr %i, align 8, !tbaa !61
  %call3 = call noundef nonnull align 4 dereferenceable(8) ptr @_ZNSt6vectorIN8QuantLib6PeriodESaIS1_EEixEm(ptr noundef nonnull align 8 dereferenceable(24) %optionTenors_2, i64 noundef %1) #16
  %call4 = call i64 @_ZNK8QuantLib22InterestRateVolSurface19optionDateFromTenorERKNS_6PeriodE(ptr noundef nonnull align 8 dereferenceable(88) %this1, ptr noundef nonnull align 4 dereferenceable(8) %call3)
  %coerce.dive = getelementptr inbounds nuw %"class.QuantLib::Date", ptr %ref.tmp, i32 0, i32 0
  store i64 %call4, ptr %coerce.dive, align 8
  %optionDates_ = getelementptr inbounds nuw %"class.QuantLib::SabrVolSurface", ptr %this1, i32 0, i32 4
  %2 = load i64, ptr %i, align 8, !tbaa !61
  %call5 = call noundef nonnull align 8 dereferenceable(8) ptr @_ZNSt6vectorIN8QuantLib4DateESaIS1_EEixEm(ptr noundef nonnull align 8 dereferenceable(24) %optionDates_, i64 noundef %2) #16
  call void @llvm.memcpy.p0.p0.i64(ptr align 8 %call5, ptr align 8 %ref.tmp, i64 8, i1 false), !tbaa.struct !62
  call void @llvm.lifetime.end.p0(i64 8, ptr %ref.tmp) #16
  %optionDates_6 = getelementptr inbounds nuw %"class.QuantLib::SabrVolSurface", ptr %this1, i32 0, i32 4
  %3 = load i64, ptr %i, align 8, !tbaa !61
  %call7 = call noundef nonnull align 8 dereferenceable(8) ptr @_ZNSt6vectorIN8QuantLib4DateESaIS1_EEixEm(ptr noundef nonnull align 8 dereferenceable(24) %optionDates_6, i64 noundef %3) #16
  %call8 = call noundef double @_ZNK8QuantLib13TermStructure17timeFromReferenceERKNS_4DateE(ptr noundef nonnull align 8 dereferenceable(64) %this1, ptr noundef nonnull align 8 dereferenceable(8) %call7)
  %optionTimes_ = getelementptr inbounds nuw %"class.QuantLib::SabrVolSurface", ptr %this1, i32 0, i32 3
  %4 = load i64, ptr %i, align 8, !tbaa !61
  %call9 = call noundef nonnull align 8 dereferenceable(8) ptr @_ZNSt6vectorIdSaIdEEixEm(ptr noundef nonnull align 8 dereferenceable(24) %optionTimes_, i64 noundef %4) #16
  store double %call8, ptr %call9, align 8, !tbaa !63
  br label %for.inc

for.inc:                                          ; preds = %for.body
  %5 = load i64, ptr %i, align 8, !tbaa !61
  %inc = add i64 %5, 1
  store i64 %inc, ptr %i, align 8, !tbaa !61
  br label %for.cond, !llvm.loop !96

for.end:                                          ; preds = %for.cond.cleanup
  %vtable = load ptr, ptr %this1, align 8, !tbaa !25
  %vbase.offset.ptr = getelementptr i8, ptr %vtable, i64 -32
  %vbase.offset = load i64, ptr %vbase.offset.ptr, align 8
  %add.ptr = getelementptr inbounds i8, ptr %this1, i64 %vbase.offset
  call void @_ZN8QuantLib10Observable15notifyObserversEv(ptr noundef nonnull align 8 dereferenceable(56) %add.ptr)
  ret void
}