; Function Attrs: mustprogress uwtable
define void @_ZN8QuantLib14SabrVolSurface6updateEv(ptr noundef nonnull align 8 dereferenceable(256) %this) unnamed_addr #6 align 2 {
entry:
  tail call void @_ZN8QuantLib13TermStructure6updateEv(ptr noundef nonnull align 8 dereferenceable(64) %this)
  %optionTenors_ = getelementptr inbounds nuw i8, ptr %this, i64 104
  %_M_finish.i = getelementptr inbounds nuw i8, ptr %this, i64 112
  %0 = load ptr, ptr %_M_finish.i, align 8, !tbaa !58
  %1 = load ptr, ptr %optionTenors_, align 8, !tbaa !60
  %cmp13.not = icmp eq ptr %0, %1
  br i1 %cmp13.not, label %for.cond.cleanup, label %for.body.lr.ph

for.body.lr.ph:                                   ; preds = %entry
  %optionDates_ = getelementptr inbounds nuw i8, ptr %this, i64 152
  %optionTimes_ = getelementptr inbounds nuw i8, ptr %this, i64 128
  br label %for.body

for.cond.cleanup:                                 ; preds = %for.body, %entry
  %vtable = load ptr, ptr %this, align 8, !tbaa !49
  %vbase.offset.ptr = getelementptr i8, ptr %vtable, i64 -32
  %vbase.offset = load i64, ptr %vbase.offset.ptr, align 8
  %add.ptr = getelementptr inbounds i8, ptr %this, i64 %vbase.offset
  tail call void @_ZN8QuantLib10Observable15notifyObserversEv(ptr noundef nonnull align 8 dereferenceable(56) %add.ptr)
  ret void

for.body:                                         ; preds = %for.body.lr.ph, %for.body
  %2 = phi ptr [ %1, %for.body.lr.ph ], [ %6, %for.body ]
  %i.014 = phi i64 [ 0, %for.body.lr.ph ], [ %inc, %for.body ]
  %add.ptr.i = getelementptr inbounds nuw %"class.QuantLib::Period", ptr %2, i64 %i.014
  %call4 = tail call i64 @_ZNK8QuantLib22InterestRateVolSurface19optionDateFromTenorERKNS_6PeriodE(ptr noundef nonnull align 8 dereferenceable(88) %this, ptr noundef nonnull align 4 dereferenceable(8) %add.ptr.i)
  %3 = load ptr, ptr %optionDates_, align 8, !tbaa !99
  %add.ptr.i6 = getelementptr inbounds nuw %"class.QuantLib::Date", ptr %3, i64 %i.014
  store i64 %call4, ptr %add.ptr.i6, align 8, !tbaa !44
  %call8 = tail call noundef double @_ZNK8QuantLib13TermStructure17timeFromReferenceERKNS_4DateE(ptr noundef nonnull align 8 dereferenceable(64) %this, ptr noundef nonnull align 8 dereferenceable(8) %add.ptr.i6)
  %4 = load ptr, ptr %optionTimes_, align 8, !tbaa !64
  %add.ptr.i8 = getelementptr inbounds nuw double, ptr %4, i64 %i.014
  store double %call8, ptr %add.ptr.i8, align 8, !tbaa !67
  %inc = add nuw i64 %i.014, 1
  %5 = load ptr, ptr %_M_finish.i, align 8, !tbaa !58
  %6 = load ptr, ptr %optionTenors_, align 8, !tbaa !60
  %sub.ptr.lhs.cast.i = ptrtoint ptr %5 to i64
  %sub.ptr.rhs.cast.i = ptrtoint ptr %6 to i64
  %sub.ptr.sub.i = sub i64 %sub.ptr.lhs.cast.i, %sub.ptr.rhs.cast.i
  %sub.ptr.div.i = ashr exact i64 %sub.ptr.sub.i, 3
  %cmp = icmp ult i64 %inc, %sub.ptr.div.i
  br i1 %cmp, label %for.body, label %for.cond.cleanup, !llvm.loop !140
}